target datalayout = "e-m:e-p270:32:32-p271:32:32-p272:64:64-i64:64-i128:128-f80:128-n8:16:32:64-S128"
target triple = "x86_64-pc-linux-gnu"

%struct._header_field_info = type { ptr, ptr, i32, i32, ptr, i64, ptr, i32, i32, i32, i32, ptr }
%struct.field_info = type { ptr, i32, i32, i32, i32, i32, i32, ptr, ptr, ptr, i32, i32 }

@.str.1 = private unnamed_addr constant [13 x i8] c"epan/proto.c\00", align 1
@.str.271 = private unnamed_addr constant [55 x i8] c"%s:%u: failed assertion \22DISSECTOR_ASSERT_NOT_REACHED\22\00", align 1

; Function Attrs: null_pointer_is_valid sspstrong uwtable
define internal i32 @hfinfo_type_bitwidth(i32 noundef %0) #0 {
  %2 = alloca i32, align 4
  %3 = alloca i32, align 4
  store i32 %0, ptr %2, align 4
  call void @llvm.lifetime.start.p0(i64 4, ptr %3) #24
  store i32 0, ptr %3, align 4
  %4 = load i32, ptr %2, align 4
  switch i32 %4, label %13 [
    i32 3, label %5
    i32 4, label %5
    i32 12, label %5
    i32 5, label %6
    i32 13, label %6
    i32 6, label %7
    i32 14, label %7
    i32 7, label %8
    i32 15, label %8
    i32 8, label %9
    i32 16, label %9
    i32 9, label %10
    i32 17, label %10
    i32 10, label %11
    i32 18, label %11
    i32 11, label %12
    i32 19, label %12
  ]

5:                                                ; preds = %1, %1, %1
  store i32 8, ptr %3, align 4
  br label %14

6:                                                ; preds = %1, %1
  store i32 16, ptr %3, align 4
  br label %14

7:                                                ; preds = %1, %1
  store i32 24, ptr %3, align 4
  br label %14

8:                                                ; preds = %1, %1
  store i32 32, ptr %3, align 4
  br label %14

9:                                                ; preds = %1, %1
  store i32 40, ptr %3, align 4
  br label %14

10:                                               ; preds = %1, %1
  store i32 48, ptr %3, align 4
  br label %14

11:                                               ; preds = %1, %1
  store i32 56, ptr %3, align 4
  br label %14

12:                                               ; preds = %1, %1
  store i32 64, ptr %3, align 4
  br label %14

13:                                               ; preds = %1
  call void (ptr, ...) @proto_report_dissector_bug(ptr noundef @.str.271, ptr noundef @.str.1, i32 noundef 10848) #27
  unreachable

14:                                               ; preds = %12, %11, %10, %9, %8, %7, %6, %5
  %15 = load i32, ptr %3, align 4
  call void @llvm.lifetime.end.p0(i64 4, ptr %3) #24
  ret i32 %15
}

; Function Attrs: inlinehint nounwind null_pointer_is_valid sspstrong uwtable
define internal i32 @ws_ilog2(i64 noundef %0) #11 {
  %2 = alloca i64, align 8
  store i64 %0, ptr %2, align 8
  %3 = load i64, ptr %2, align 8
  %4 = call i64 @llvm.ctlz.i64(i64 %3, i1 true)
  %5 = trunc i64 %4 to i32
  %6 = sub i32 63, %5
  ret i32 %6
}

; Function Attrs: null_pointer_is_valid sspstrong uwtable
define internal i32 @hfinfo_container_bitwidth(ptr noundef %0) #0 {
  %2 = alloca i32, align 4
  %3 = alloca ptr, align 8
  store ptr %0, ptr %3, align 8
  %4 = load ptr, ptr %3, align 8
  %5 = getelementptr inbounds nuw %struct._header_field_info, ptr %4, i32 0, i32 5
  %6 = load i64, ptr %5, align 8
  %7 = icmp ne i64 %6, 0
  br i1 %7, label %9, label %8

8:                                                ; preds = %1
  store i32 0, ptr %2, align 4
  br label %23

9:                                                ; preds = %1
  %10 = load ptr, ptr %3, align 8
  %11 = getelementptr inbounds nuw %struct._header_field_info, ptr %10, i32 0, i32 2
  %12 = load i32, ptr %11, align 8
  %13 = icmp eq i32 %12, 2
  br i1 %13, label %14, label %18

14:                                               ; preds = %9
  %15 = load ptr, ptr %3, align 8
  %16 = getelementptr inbounds nuw %struct._header_field_info, ptr %15, i32 0, i32 3
  %17 = load i32, ptr %16, align 4
  store i32 %17, ptr %2, align 4
  br label %23

18:                                               ; preds = %9
  %19 = load ptr, ptr %3, align 8
  %20 = getelementptr inbounds nuw %struct._header_field_info, ptr %19, i32 0, i32 2
  %21 = load i32, ptr %20, align 8
  %22 = call i32 @hfinfo_type_bitwidth(i32 noundef %21)
  store i32 %22, ptr %2, align 4
  br label %23

23:                                               ; preds = %18, %14, %8
  %24 = load i32, ptr %2, align 4
  ret i32 %24
}

; Function Attrs: inlinehint nounwind null_pointer_is_valid sspstrong uwtable
define internal i32 @ws_ctz(i64 noundef %0) #11 {
  %2 = alloca i64, align 8
  store i64 %0, ptr %2, align 8
  %3 = load i64, ptr %2, align 8
  %4 = call i64 @llvm.cttz.i64(i64 %3, i1 true)
  %5 = trunc i64 %4 to i32
  ret i32 %5
}

; Function Attrs: null_pointer_is_valid sspstrong uwtable
define internal i32 @hfinfo_mask_bitwidth(ptr noundef %0) #0 {
  %2 = alloca i32, align 4
  %3 = alloca ptr, align 8
  store ptr %0, ptr %3, align 8
  %4 = load ptr, ptr %3, align 8
  %5 = getelementptr inbounds nuw %struct._header_field_info, ptr %4, i32 0, i32 5
  %6 = load i64, ptr %5, align 8
  %7 = icmp ne i64 %6, 0
  br i1 %7, label %9, label %8

8:                                                ; preds = %1
  store i32 0, ptr %2, align 4
  br label %20

9:                                                ; preds = %1
  %10 = load ptr, ptr %3, align 8
  %11 = getelementptr inbounds nuw %struct._header_field_info, ptr %10, i32 0, i32 5
  %12 = load i64, ptr %11, align 8
  %13 = call i32 @ws_ilog2(i64 noundef %12)
  %14 = load ptr, ptr %3, align 8
  %15 = getelementptr inbounds nuw %struct._header_field_info, ptr %14, i32 0, i32 5
  %16 = load i64, ptr %15, align 8
  %17 = call i32 @ws_ctz(i64 noundef %16)
  %18 = sub i32 %13, %17
  %19 = add i32 %18, 1
  store i32 %19, ptr %2, align 4
  br label %20

20:                                               ; preds = %9, %8
  %21 = load i32, ptr %2, align 4
  ret i32 %21
}

; Function Attrs: null_pointer_is_valid sspstrong uwtable
define internal i32 @hfinfo_bitoffset(ptr noundef %0) #0 {
  %2 = alloca i32, align 4
  %3 = alloca ptr, align 8
  store ptr %0, ptr %3, align 8
  %4 = load ptr, ptr %3, align 8
  %5 = getelementptr inbounds nuw %struct._header_field_info, ptr %4, i32 0, i32 5
  %6 = load i64, ptr %5, align 8
  %7 = icmp ne i64 %6, 0
  br i1 %7, label %9, label %8

8:                                                ; preds = %1
  store i32 0, ptr %2, align 4
  br label %18

9:                                                ; preds = %1
  %10 = load ptr, ptr %3, align 8
  %11 = call i32 @hfinfo_container_bitwidth(ptr noundef %10)
  %12 = sub i32 %11, 1
  %13 = load ptr, ptr %3, align 8
  %14 = getelementptr inbounds nuw %struct._header_field_info, ptr %13, i32 0, i32 5
  %15 = load i64, ptr %14, align 8
  %16 = call i32 @ws_ilog2(i64 noundef %15)
  %17 = sub i32 %12, %16
  store i32 %17, ptr %2, align 4
  br label %18

18:                                               ; preds = %9, %8
  %19 = load i32, ptr %2, align 4
  ret i32 %19
}

; Function Attrs: inlinehint nounwind null_pointer_is_valid sspstrong uwtable
define internal i32 @ws_sign_ext32(i32 noundef %0, i32 noundef %1) #11 {
  %3 = alloca i32, align 4
  %4 = alloca i32, align 4
  %5 = alloca i32, align 4
  store i32 %0, ptr %4, align 4
  store i32 %1, ptr %5, align 4
  br label %6

6:                                                ; preds = %2
  br label %7

7:                                                ; preds = %6
  %8 = load i32, ptr %5, align 4
  %9 = icmp eq i32 %8, 0
  br i1 %9, label %13, label %10

10:                                               ; preds = %7
  %11 = load i32, ptr %5, align 4
  %12 = icmp eq i32 %11, 32
  br i1 %12, label %13, label %15

13:                                               ; preds = %10, %7
  %14 = load i32, ptr %4, align 4
  store i32 %14, ptr %3, align 4
  br label %29

15:                                               ; preds = %10
  %16 = load i32, ptr %4, align 4
  %17 = load i32, ptr %5, align 4
  %18 = sub i32 %17, 1
  %19 = shl i32 1, %18
  %20 = and i32 %16, %19
  %21 = icmp ne i32 %20, 0
  br i1 %21, label %22, label %27

22:                                               ; preds = %15
  %23 = load i32, ptr %5, align 4
  %24 = shl i32 -1, %23
  %25 = load i32, ptr %4, align 4
  %26 = or i32 %25, %24
  store i32 %26, ptr %4, align 4
  br label %27

27:                                               ; preds = %22, %15
  %28 = load i32, ptr %4, align 4
  store i32 %28, ptr %3, align 4
  br label %29

29:                                               ; preds = %27, %13
  %30 = load i32, ptr %3, align 4
  ret i32 %30
}

; Function Attrs: inlinehint nounwind null_pointer_is_valid sspstrong uwtable
define internal i32 @ws_count_ones(i64 noundef %0) #11 {
  %2 = alloca i64, align 8
  %3 = alloca i64, align 8
  store i64 %0, ptr %2, align 8
  call void @llvm.lifetime.start.p0(i64 8, ptr %3) #24
  %4 = load i64, ptr %2, align 8
  store i64 %4, ptr %3, align 8
  %5 = load i64, ptr %3, align 8
  %6 = load i64, ptr %3, align 8
  %7 = lshr i64 %6, 1
  %8 = and i64 %7, 6148914691236517205
  %9 = sub i64 %5, %8
  store i64 %9, ptr %3, align 8
  %10 = load i64, ptr %3, align 8
  %11 = and i64 %10, 3689348814741910323
  %12 = load i64, ptr %3, align 8
  %13 = lshr i64 %12, 2
  %14 = and i64 %13, 3689348814741910323
  %15 = add i64 %11, %14
  store i64 %15, ptr %3, align 8
  %16 = load i64, ptr %3, align 8
  %17 = load i64, ptr %3, align 8
  %18 = lshr i64 %17, 4
  %19 = add i64 %16, %18
  %20 = and i64 %19, 1085102592571150095
  store i64 %20, ptr %3, align 8
  %21 = load i64, ptr %3, align 8
  %22 = mul i64 %21, 72340172838076673
  %23 = lshr i64 %22, 56
  %24 = trunc i64 %23 to i32
  call void @llvm.lifetime.end.p0(i64 8, ptr %3) #24
  ret i32 %24
}

; Function Attrs: null_pointer_is_valid sspstrong uwtable
define i32 @hfinfo_bitshift(ptr noundef %0) #0 {
  %2 = alloca ptr, align 8
  store ptr %0, ptr %2, align 8
  %3 = load ptr, ptr %2, align 8
  %4 = getelementptr inbounds nuw %struct._header_field_info, ptr %3, i32 0, i32 5
  %5 = load i64, ptr %4, align 8
  %6 = call i32 @ws_ctz(i64 noundef %5)
  ret i32 %6
}

; Function Attrs: null_pointer_is_valid sspstrong uwtable
define internal void @proto_tree_set_int(ptr noundef %0, i32 noundef %1) #0 {
  %3 = alloca ptr, align 8
  %4 = alloca i32, align 4
  %5 = alloca ptr, align 8
  %6 = alloca i32, align 4
  %7 = alloca i32, align 4
  store ptr %0, ptr %3, align 8
  store i32 %1, ptr %4, align 4
  call void @llvm.lifetime.start.p0(i64 8, ptr %5) #24
  call void @llvm.lifetime.start.p0(i64 4, ptr %6) #24
  call void @llvm.lifetime.start.p0(i64 4, ptr %7) #24
  %8 = load ptr, ptr %3, align 8
  %9 = getelementptr inbounds nuw %struct.field_info, ptr %8, i32 0, i32 0
  %10 = load ptr, ptr %9, align 8
  store ptr %10, ptr %5, align 8
  %11 = load i32, ptr %4, align 4
  store i32 %11, ptr %6, align 4
  %12 = load ptr, ptr %5, align 8
  %13 = getelementptr inbounds nuw %struct._header_field_info, ptr %12, i32 0, i32 5
  %14 = load i64, ptr %13, align 8
  %15 = icmp ne i64 %14, 0
  br i1 %15, label %16, label %68

16:                                               ; preds = %2
  %17 = load ptr, ptr %5, align 8
  %18 = getelementptr inbounds nuw %struct._header_field_info, ptr %17, i32 0, i32 5
  %19 = load i64, ptr %18, align 8
  %20 = trunc i64 %19 to i32
  %21 = load i32, ptr %6, align 4
  %22 = and i32 %21, %20
  store i32 %22, ptr %6, align 4
  %23 = load ptr, ptr %5, align 8
  %24 = call i32 @hfinfo_bitshift(ptr noundef %23)
  %25 = load i32, ptr %6, align 4
  %26 = lshr i32 %25, %24
  store i32 %26, ptr %6, align 4
  %27 = load ptr, ptr %5, align 8
  %28 = getelementptr inbounds nuw %struct._header_field_info, ptr %27, i32 0, i32 5
  %29 = load i64, ptr %28, align 8
  %30 = call i32 @ws_count_ones(i64 noundef %29)
  store i32 %30, ptr %7, align 4
  %31 = load i32, ptr %6, align 4
  %32 = load i32, ptr %7, align 4
  %33 = call i32 @ws_sign_ext32(i32 noundef %31, i32 noundef %32)
  store i32 %33, ptr %6, align 4
  br label %34

34:                                               ; preds = %16
  %35 = load ptr, ptr %3, align 8
  %36 = icmp ne ptr %35, null
  br i1 %36, label %37, label %48

37:                                               ; preds = %34
  %38 = load ptr, ptr %3, align 8
  %39 = getelementptr inbounds nuw %struct.field_info, ptr %38, i32 0, i32 6
  %40 = load i32, ptr %39, align 4
  %41 = load ptr, ptr %5, align 8
  %42 = call i32 @hfinfo_bitoffset(ptr noundef %41)
  %43 = and i32 %42, 7
  %44 = shl i32 %43, 5
  %45 = or i32 %40, %44
  %46 = load ptr, ptr %3, align 8
  %47 = getelementptr inbounds nuw %struct.field_info, ptr %46, i32 0, i32 6
  store i32 %45, ptr %47, align 4
  br label %48

48:                                               ; preds = %37, %34
  br label %49

49:                                               ; preds = %48
  br label %50

50:                                               ; preds = %49
  br label %51

51:                                               ; preds = %50
  %52 = load ptr, ptr %3, align 8
  %53 = icmp ne ptr %52, null
  br i1 %53, label %54, label %65

54:                                               ; preds = %51
  %55 = load ptr, ptr %3, align 8
  %56 = getelementptr inbounds nuw %struct.field_info, ptr %55, i32 0, i32 6
  %57 = load i32, ptr %56, align 4
  %58 = load ptr, ptr %5, align 8
  %59 = call i32 @hfinfo_mask_bitwidth(ptr noundef %58)
  %60 = and i32 %59, 63
  %61 = shl i32 %60, 8
  %62 = or i32 %57, %61
  %63 = load ptr, ptr %3, align 8
  %64 = getelementptr inbounds nuw %struct.field_info, ptr %63, i32 0, i32 6
  store i32 %62, ptr %64, align 4
  br label %65

65:                                               ; preds = %54, %51
  br label %66

66:                                               ; preds = %65
  br label %67

67:                                               ; preds = %66
  br label %68

68:                                               ; preds = %67, %2
  %69 = load ptr, ptr %3, align 8
  %70 = getelementptr inbounds nuw %struct.field_info, ptr %69, i32 0, i32 9
  %71 = load ptr, ptr %70, align 8
  %72 = load i32, ptr %6, align 4
  call void @fvalue_set_sinteger(ptr noundef %71, i32 noundef %72)
  call void @llvm.lifetime.end.p0(i64 4, ptr %7) #24
  call void @llvm.lifetime.end.p0(i64 4, ptr %6) #24
  call void @llvm.lifetime.end.p0(i64 8, ptr %5) #24
  ret void
}