; Function Attrs: null_pointer_is_valid sspstrong uwtable
define internal fastcc void @proto_tree_set_int(ptr noundef captures(address_is_null) %0, i32 noundef %1) unnamed_addr #0 {
  %3 = load ptr, ptr %0, align 8
  %4 = getelementptr inbounds nuw i8, ptr %3, i64 32
  %5 = load i64, ptr %4, align 8
  %.not = icmp eq i64 %5, 0
  br i1 %.not, label %.critedge, label %6

6:                                                ; preds = %2
  %7 = trunc i64 %5 to i32
  %8 = and i32 %1, %7
  %9 = tail call range(i64 0, 65) i64 @llvm.cttz.i64(i64 %5, i1 true)
  %10 = trunc nuw nsw i64 %9 to i32
  %11 = lshr i32 %8, %10
  %12 = tail call range(i64 1, 65) i64 @llvm.ctpop.i64(i64 %5)
  %13 = trunc nuw nsw i64 %12 to i32
  %14 = and i32 %13, 95
  %or.cond.i = icmp eq i32 %14, 0
  br i1 %or.cond.i, label %ws_sign_ext32.exit, label %15

15:                                               ; preds = %6
  %16 = add nsw i32 %13, -1
  %17 = shl nuw i32 1, %16
  %18 = and i32 %17, %11
  %.not.i = icmp eq i32 %18, 0
  %19 = shl nsw i32 -1, %13
  %20 = select i1 %.not.i, i32 0, i32 %19
  %.010.i = or i32 %20, %11
  br label %ws_sign_ext32.exit

ws_sign_ext32.exit:                               ; preds = %6, %15
  %.0.i = phi i32 [ %.010.i, %15 ], [ %11, %6 ]
  %.not21 = icmp eq ptr %0, null
  br i1 %.not21, label %.critedge, label %21

21:                                               ; preds = %ws_sign_ext32.exit
  %22 = getelementptr inbounds nuw i8, ptr %0, i64 28
  %23 = load i32, ptr %22, align 4
  %24 = getelementptr inbounds nuw i8, ptr %3, i64 16
  %25 = load i32, ptr %24, align 8
  switch i32 %25, label %36 [
    i32 2, label %26
    i32 3, label %hfinfo_bitoffset.exit
    i32 4, label %hfinfo_bitoffset.exit
    i32 12, label %hfinfo_bitoffset.exit
    i32 5, label %29
    i32 13, label %29
    i32 6, label %30
    i32 14, label %30
    i32 7, label %31
    i32 15, label %31
    i32 8, label %32
    i32 16, label %32
    i32 9, label %33
    i32 17, label %33
    i32 10, label %34
    i32 18, label %34
    i32 11, label %35
    i32 19, label %35
  ]

26:                                               ; preds = %21
  %27 = getelementptr inbounds nuw i8, ptr %3, i64 20
  %28 = load i32, ptr %27, align 4
  br label %hfinfo_bitoffset.exit

29:                                               ; preds = %21, %21
  br label %hfinfo_bitoffset.exit

30:                                               ; preds = %21, %21
  br label %hfinfo_bitoffset.exit

31:                                               ; preds = %21, %21
  br label %hfinfo_bitoffset.exit

32:                                               ; preds = %21, %21
  br label %hfinfo_bitoffset.exit

33:                                               ; preds = %21, %21
  br label %hfinfo_bitoffset.exit

34:                                               ; preds = %21, %21
  br label %hfinfo_bitoffset.exit

35:                                               ; preds = %21, %21
  br label %hfinfo_bitoffset.exit

36:                                               ; preds = %21
  tail call void (ptr, ...) @proto_report_dissector_bug(ptr noundef nonnull @.str.271, ptr noundef nonnull @.str.1, i32 noundef 10848) #37
  unreachable

hfinfo_bitoffset.exit:                            ; preds = %21, %21, %21, %26, %29, %30, %31, %32, %33, %34, %35
  %.0.i.i = phi i32 [ %28, %26 ], [ 64, %35 ], [ 56, %34 ], [ 48, %33 ], [ 40, %32 ], [ 32, %31 ], [ 24, %30 ], [ 16, %29 ], [ 8, %21 ], [ 8, %21 ], [ 8, %21 ]
  %37 = tail call range(i64 0, 65) i64 @llvm.ctlz.i64(i64 %5, i1 true)
  %38 = trunc nuw nsw i64 %37 to i32
  %39 = add i32 %.0.i.i, %38
  %40 = shl i32 %39, 5
  %41 = and i32 %40, 224
  %42 = or i32 %41, %23
  store i32 %42, ptr %22, align 4
  %.val = load i64, ptr %4, align 8
  %.not.i24 = icmp eq i64 %.val, 0
  br i1 %.not.i24, label %hfinfo_mask_bitwidth.exit, label %43

43:                                               ; preds = %hfinfo_bitoffset.exit
  %44 = tail call range(i64 0, 65) i64 @llvm.ctlz.i64(i64 %.val, i1 true)
  %45 = trunc nuw nsw i64 %44 to i32
  %46 = xor i32 %45, 63
  %47 = tail call range(i64 0, 65) i64 @llvm.cttz.i64(i64 %.val, i1 true)
  %48 = trunc nuw nsw i64 %47 to i32
  %reass.sub.i = sub nsw i32 %46, %48
  %49 = shl nsw i32 %reass.sub.i, 8
  %50 = add nsw i32 %49, 256
  %51 = and i32 %50, 16128
  br label %hfinfo_mask_bitwidth.exit

hfinfo_mask_bitwidth.exit:                        ; preds = %hfinfo_bitoffset.exit, %43
  %.0.i25 = phi i32 [ %51, %43 ], [ 0, %hfinfo_bitoffset.exit ]
  %52 = or i32 %.0.i25, %42
  store i32 %52, ptr %22, align 4
  br label %.critedge

.critedge:                                        ; preds = %ws_sign_ext32.exit, %hfinfo_mask_bitwidth.exit, %2
  %.0 = phi i32 [ %.0.i, %hfinfo_mask_bitwidth.exit ], [ %1, %2 ], [ %.0.i, %ws_sign_ext32.exit ]
  %53 = getelementptr inbounds nuw i8, ptr %0, i64 48
  %54 = load ptr, ptr %53, align 8
  tail call void @fvalue_set_sinteger(ptr noundef %54, i32 noundef %.0)
  ret void
}